target datalayout = "e-m:e-p270:32:32-p271:32:32-p272:64:64-i64:64-i128:128-f80:128-n8:16:32:64-S128"
target triple = "x86_64-pc-linux-gnu"

%struct.tm = type { i32, i32, i32, i32, i32, i32, i32, i32, i32, i64, ptr }
%struct.nstime_t = type { i64, i32 }

@timecode_default = internal global %struct.tm zeroinitializer, align 8
@ts_fmt_iso = internal global i8 0, align 1
@.str.25 = private unnamed_addr constant [3 x i8] c"%f\00", align 1

; Function Attrs: null_pointer_is_valid sspstrong uwtable
define internal zeroext i1 @_parse_time(ptr noundef %0, ptr noundef %1, ptr noundef %2, ptr noundef %3, ptr noundef %4) #0 {
  %6 = alloca i1, align 1
  %7 = alloca ptr, align 8
  %8 = alloca ptr, align 8
  %9 = alloca ptr, align 8
  %10 = alloca ptr, align 8
  %11 = alloca ptr, align 8
  %12 = alloca %struct.tm, align 8
  %13 = alloca i64, align 8
  %14 = alloca i32, align 4
  %15 = alloca [64 x i8], align 16
  %16 = alloca [64 x i8], align 16
  %17 = alloca ptr, align 8
  %18 = alloca i32, align 4
  %19 = alloca ptr, align 8
  %20 = alloca ptr, align 8
  %21 = alloca i32, align 4
  %22 = alloca %struct.nstime_t, align 8
  %23 = alloca i32, align 4
  store ptr %0, ptr %7, align 8
  store ptr %1, ptr %8, align 8
  store ptr %2, ptr %9, align 8
  store ptr %3, ptr %10, align 8
  store ptr %4, ptr %11, align 8
  call void @llvm.lifetime.start.p0(i64 56, ptr %12) #15
  call void @llvm.lifetime.start.p0(i64 8, ptr %13) #15
  call void @llvm.lifetime.start.p0(i64 4, ptr %14) #15
  store i32 0, ptr %14, align 4
  call void @llvm.lifetime.start.p0(i64 64, ptr %15) #15
  call void @llvm.lifetime.start.p0(i64 64, ptr %16) #15
  call void @llvm.lifetime.start.p0(i64 8, ptr %17) #15
  call void @llvm.lifetime.start.p0(i64 4, ptr %18) #15
  store i32 -1, ptr %18, align 4
  call void @llvm.lifetime.start.p0(i64 8, ptr %19) #15
  call void @llvm.lifetime.start.p0(i64 8, ptr %20) #15
  call void @llvm.lifetime.start.p0(i64 4, ptr %21) #15
  %24 = getelementptr inbounds [64 x i8], ptr %15, i64 0, i64 0
  %25 = load ptr, ptr %7, align 8
  %26 = load ptr, ptr %8, align 8
  %27 = load ptr, ptr %7, align 8
  %28 = ptrtoint ptr %26 to i64
  %29 = ptrtoint ptr %27 to i64
  %30 = sub i64 %28, %29
  %31 = add i64 %30, 1
  %32 = icmp slt i64 %31, 64
  br i1 %32, label %33, label %40

33:                                               ; preds = %5
  %34 = load ptr, ptr %8, align 8
  %35 = load ptr, ptr %7, align 8
  %36 = ptrtoint ptr %34 to i64
  %37 = ptrtoint ptr %35 to i64
  %38 = sub i64 %36, %37
  %39 = add i64 %38, 1
  br label %41

40:                                               ; preds = %5
  br label %41

41:                                               ; preds = %40, %33
  %42 = phi i64 [ %39, %33 ], [ 64, %40 ]
  %43 = call i64 @g_strlcpy(ptr noundef %24, ptr noundef %25, i64 noundef %42)
  %44 = load i8, ptr @ts_fmt_iso, align 1, !range !10, !noundef !11
  %45 = trunc i8 %44 to i1
  br i1 %45, label %46, label %61

46:                                               ; preds = %41
  call void @llvm.lifetime.start.p0(i64 16, ptr %22) #15
  %47 = getelementptr inbounds [64 x i8], ptr %15, i64 0, i64 0
  %48 = call ptr @iso8601_to_nstime(ptr noundef %22, ptr noundef %47, i32 noundef 2)
  %49 = icmp ne ptr %48, null
  br i1 %49, label %51, label %50

50:                                               ; preds = %46
  store i1 false, ptr %6, align 1
  store i32 1, ptr %23, align 4
  br label %58

51:                                               ; preds = %46
  %52 = getelementptr inbounds nuw %struct.nstime_t, ptr %22, i32 0, i32 0
  %53 = load i64, ptr %52, align 8
  %54 = load ptr, ptr %10, align 8
  store i64 %53, ptr %54, align 8
  %55 = getelementptr inbounds nuw %struct.nstime_t, ptr %22, i32 0, i32 1
  %56 = load i32, ptr %55, align 8
  %57 = load ptr, ptr %11, align 8
  store i32 %56, ptr %57, align 4
  store i32 0, ptr %23, align 4
  br label %58

58:                                               ; preds = %51, %50
  call void @llvm.lifetime.end.p0(i64 16, ptr %22) #15
  %59 = load i32, ptr %23, align 4
  switch i32 %59, label %156 [
    i32 0, label %60
  ]

60:                                               ; preds = %58
  br label %152

61:                                               ; preds = %41
  %62 = getelementptr inbounds [64 x i8], ptr %16, i64 0, i64 0
  %63 = load ptr, ptr %9, align 8
  %64 = call i64 @g_strlcpy(ptr noundef %62, ptr noundef %63, i64 noundef 64)
  call void @llvm.memcpy.p0.p0.i64(ptr align 8 %12, ptr align 8 @timecode_default, i64 56, i1 false)
  %65 = getelementptr [64 x i8], ptr %15, i64 0, i64 0
  store ptr %65, ptr %19, align 8
  %66 = getelementptr inbounds [64 x i8], ptr %16, i64 0, i64 0
  %67 = call ptr @g_strrstr(ptr noundef %66, ptr noundef @.str.25)
  store ptr %67, ptr %17, align 8
  %68 = load ptr, ptr %17, align 8
  %69 = icmp ne ptr %68, null
  br i1 %69, label %70, label %72

70:                                               ; preds = %61
  %71 = load ptr, ptr %17, align 8
  store i8 0, ptr %71, align 1
  br label %72

72:                                               ; preds = %70, %61
  %73 = load ptr, ptr %19, align 8
  %74 = getelementptr inbounds [64 x i8], ptr %16, i64 0, i64 0
  %75 = call ptr @ws_strptime_p(ptr noundef %73, ptr noundef %74, ptr noundef %12)
  store ptr %75, ptr %19, align 8
  %76 = load ptr, ptr %19, align 8
  %77 = icmp eq ptr %76, null
  br i1 %77, label %78, label %79

78:                                               ; preds = %72
  store i1 false, ptr %6, align 1
  store i32 1, ptr %23, align 4
  br label %156

79:                                               ; preds = %72
  %80 = load ptr, ptr %17, align 8
  %81 = icmp ne ptr %80, null
  br i1 %81, label %82, label %106

82:                                               ; preds = %79
  %83 = load ptr, ptr %19, align 8
  %84 = call i64 @strtol(ptr noundef %83, ptr noundef %20, i32 noundef 10) #15
  %85 = trunc i64 %84 to i32
  store i32 %85, ptr %14, align 4
  %86 = load ptr, ptr %20, align 8
  %87 = load ptr, ptr %19, align 8
  %88 = icmp eq ptr %86, %87
  br i1 %88, label %89, label %90

89:                                               ; preds = %82
  store i1 false, ptr %6, align 1
  store i32 1, ptr %23, align 4
  br label %156

90:                                               ; preds = %82
  %91 = load ptr, ptr %20, align 8
  %92 = load ptr, ptr %19, align 8
  %93 = ptrtoint ptr %91 to i64
  %94 = ptrtoint ptr %92 to i64
  %95 = sub i64 %93, %94
  %96 = trunc i64 %95 to i32
  store i32 %96, ptr %18, align 4
  %97 = load ptr, ptr %20, align 8
  store ptr %97, ptr %19, align 8
  %98 = load ptr, ptr %19, align 8
  %99 = load ptr, ptr %17, align 8
  %100 = getelementptr i8, ptr %99, i64 2
  %101 = call ptr @ws_strptime_p(ptr noundef %98, ptr noundef %100, ptr noundef %12)
  store ptr %101, ptr %19, align 8
  %102 = load ptr, ptr %19, align 8
  %103 = icmp eq ptr %102, null
  br i1 %103, label %104, label %105

104:                                              ; preds = %90
  store i1 false, ptr %6, align 1
  store i32 1, ptr %23, align 4
  br label %156

105:                                              ; preds = %90
  br label %106

106:                                              ; preds = %105, %79
  %107 = load i32, ptr %18, align 4
  %108 = icmp sgt i32 %107, 0
  br i1 %108, label %109, label %143

109:                                              ; preds = %106
  %110 = load i32, ptr %18, align 4
  %111 = icmp sgt i32 %110, 9
  br i1 %111, label %112, label %125

112:                                              ; preds = %109
  %113 = load i32, ptr %18, align 4
  %114 = sub i32 %113, 9
  store i32 %114, ptr %21, align 4
  br label %115

115:                                              ; preds = %121, %112
  %116 = load i32, ptr %21, align 4
  %117 = icmp ne i32 %116, 0
  br i1 %117, label %118, label %124

118:                                              ; preds = %115
  %119 = load i32, ptr %14, align 4
  %120 = sdiv i32 %119, 10
  store i32 %120, ptr %14, align 4
  br label %121

121:                                              ; preds = %118
  %122 = load i32, ptr %21, align 4
  %123 = add i32 %122, -1
  store i32 %123, ptr %21, align 4
  br label %115, !llvm.loop !28

124:                                              ; preds = %115
  br label %142

125:                                              ; preds = %109
  %126 = load i32, ptr %18, align 4
  %127 = icmp slt i32 %126, 9
  br i1 %127, label %128, label %141

128:                                              ; preds = %125
  %129 = load i32, ptr %18, align 4
  %130 = sub i32 9, %129
  store i32 %130, ptr %21, align 4
  br label %131

131:                                              ; preds = %137, %128
  %132 = load i32, ptr %21, align 4
  %133 = icmp ne i32 %132, 0
  br i1 %133, label %134, label %140

134:                                              ; preds = %131
  %135 = load i32, ptr %14, align 4
  %136 = mul i32 %135, 10
  store i32 %136, ptr %14, align 4
  br label %137

137:                                              ; preds = %134
  %138 = load i32, ptr %21, align 4
  %139 = add i32 %138, -1
  store i32 %139, ptr %21, align 4
  br label %131, !llvm.loop !29

140:                                              ; preds = %131
  br label %141

141:                                              ; preds = %140, %125
  br label %142

142:                                              ; preds = %141, %124
  br label %143

143:                                              ; preds = %142, %106
  %144 = call i64 @mktime(ptr noundef %12) #15
  store i64 %144, ptr %13, align 8
  %145 = icmp eq i64 -1, %144
  br i1 %145, label %146, label %147

146:                                              ; preds = %143
  store i1 false, ptr %6, align 1
  store i32 1, ptr %23, align 4
  br label %156

147:                                              ; preds = %143
  %148 = load i64, ptr %13, align 8
  %149 = load ptr, ptr %10, align 8
  store i64 %148, ptr %149, align 8
  %150 = load i32, ptr %14, align 4
  %151 = load ptr, ptr %11, align 8
  store i32 %150, ptr %151, align 4
  br label %152

152:                                              ; preds = %147, %60
  br label %153

153:                                              ; preds = %152
  br label %154

154:                                              ; preds = %153
  br label %155

155:                                              ; preds = %154
  store i1 true, ptr %6, align 1
  store i32 1, ptr %23, align 4
  br label %156

156:                                              ; preds = %155, %146, %104, %89, %78, %58
  call void @llvm.lifetime.end.p0(i64 4, ptr %21) #15
  call void @llvm.lifetime.end.p0(i64 8, ptr %20) #15
  call void @llvm.lifetime.end.p0(i64 8, ptr %19) #15
  call void @llvm.lifetime.end.p0(i64 4, ptr %18) #15
  call void @llvm.lifetime.end.p0(i64 8, ptr %17) #15
  call void @llvm.lifetime.end.p0(i64 64, ptr %16) #15
  call void @llvm.lifetime.end.p0(i64 64, ptr %15) #15
  call void @llvm.lifetime.end.p0(i64 4, ptr %14) #15
  call void @llvm.lifetime.end.p0(i64 8, ptr %13) #15
  call void @llvm.lifetime.end.p0(i64 56, ptr %12) #15
  %157 = load i1, ptr %6, align 1
  ret i1 %157
}