; Function Attrs: null_pointer_is_valid sspstrong uwtable
define internal fastcc noundef zeroext i1 @_parse_time(ptr noundef %0, ptr noundef %1, ptr noundef nonnull %2) unnamed_addr #0 {
  %4 = alloca %struct.tm, align 8
  %5 = alloca [64 x i8], align 16
  %6 = alloca [64 x i8], align 16
  %7 = alloca ptr, align 8
  %8 = alloca %struct.nstime_t, align 8
  call void @llvm.lifetime.start.p0(i64 56, ptr nonnull %4) #18
  call void @llvm.lifetime.start.p0(i64 64, ptr nonnull %5) #18
  call void @llvm.lifetime.start.p0(i64 64, ptr nonnull %6) #18
  call void @llvm.lifetime.start.p0(i64 8, ptr nonnull %7) #18
  %9 = ptrtoint ptr %1 to i64
  %10 = ptrtoint ptr %0 to i64
  %reass.sub = sub i64 %9, %10
  %11 = add i64 %reass.sub, 1
  %12 = tail call i64 @llvm.smin.i64(i64 %11, i64 64)
  %13 = call i64 @g_strlcpy(ptr noundef nonnull %5, ptr noundef %0, i64 noundef %12)
  %.b46 = load i1, ptr @ts_fmt_iso, align 1
  br i1 %.b46, label %14, label %20

14:                                               ; preds = %3
  call void @llvm.lifetime.start.p0(i64 16, ptr nonnull %8) #18
  %15 = call ptr @iso8601_to_nstime(ptr noundef nonnull %8, ptr noundef nonnull %5, i32 noundef 2)
  %.not50.not = icmp eq ptr %15, null
  br i1 %.not50.not, label %.critedge, label %16

16:                                               ; preds = %14
  %17 = load i64, ptr %8, align 8
  store i64 %17, ptr @ts_sec, align 8
  %18 = getelementptr inbounds nuw i8, ptr %8, i64 8
  %19 = load i32, ptr %18, align 8
  store i32 %19, ptr @ts_nsec, align 4
  call void @llvm.lifetime.end.p0(i64 16, ptr nonnull %8) #18
  br label %55

20:                                               ; preds = %3
  %21 = call i64 @g_strlcpy(ptr noundef nonnull %6, ptr noundef nonnull %2, i64 noundef 64)
  call void @llvm.memcpy.p0.p0.i64(ptr noundef nonnull align 8 dereferenceable(56) %4, ptr noundef nonnull align 8 dereferenceable(56) @timecode_default, i64 56, i1 false)
  %22 = call ptr @g_strrstr(ptr noundef nonnull %6, ptr noundef nonnull @.str.25)
  %.not = icmp eq ptr %22, null
  br i1 %.not, label %23, label %.thread

23:                                               ; preds = %20
  %24 = call ptr @ws_strptime_p(ptr noundef nonnull %5, ptr noundef nonnull %6, ptr noundef nonnull %4)
  %25 = icmp eq ptr %24, null
  br i1 %25, label %55, label %.thread2

.thread:                                          ; preds = %20
  store i8 0, ptr %22, align 1
  %26 = call ptr @ws_strptime_p(ptr noundef nonnull %5, ptr noundef nonnull %6, ptr noundef nonnull %4)
  %27 = icmp eq ptr %26, null
  br i1 %27, label %55, label %28

28:                                               ; preds = %.thread
  %29 = call i64 @strtol(ptr noundef nonnull %26, ptr noundef nonnull %7, i32 noundef 10) #18
  %30 = load ptr, ptr %7, align 8
  %31 = icmp eq ptr %30, %26
  br i1 %31, label %55, label %32

32:                                               ; preds = %28
  %33 = trunc i64 %29 to i32
  %34 = ptrtoint ptr %30 to i64
  %35 = ptrtoint ptr %26 to i64
  %36 = sub i64 %34, %35
  %37 = trunc i64 %36 to i32
  %38 = getelementptr i8, ptr %22, i64 2
  %39 = call ptr @ws_strptime_p(ptr noundef %30, ptr noundef %38, ptr noundef nonnull %4)
  %40 = icmp eq ptr %39, null
  br i1 %40, label %55, label %41

41:                                               ; preds = %32
  %42 = icmp sgt i32 %37, 0
  br i1 %42, label %43, label %.thread2

43:                                               ; preds = %41
  %44 = icmp samesign ugt i32 %37, 9
  br i1 %44, label %.lr.ph12.preheader, label %48

.lr.ph12.preheader:                               ; preds = %43
  %45 = add nsw i32 %37, -9
  br label %.lr.ph12

.lr.ph12:                                         ; preds = %.lr.ph12.preheader, %.lr.ph12
  %.03511 = phi i32 [ %47, %.lr.ph12 ], [ %45, %.lr.ph12.preheader ]
  %.210 = phi i32 [ %46, %.lr.ph12 ], [ %33, %.lr.ph12.preheader ]
  %46 = sdiv i32 %.210, 10
  %47 = add nsw i32 %.03511, -1
  %.not49 = icmp eq i32 %47, 0
  br i1 %.not49, label %.thread2, label %.lr.ph12, !llvm.loop !27

48:                                               ; preds = %43
  %.not486 = icmp eq i32 %37, 9
  br i1 %.not486, label %.thread2, label %.lr.ph.preheader

.lr.ph.preheader:                                 ; preds = %48
  %49 = sub nuw nsw i32 9, %37
  br label %.lr.ph

.lr.ph:                                           ; preds = %.lr.ph.preheader, %.lr.ph
  %.18 = phi i32 [ %51, %.lr.ph ], [ %49, %.lr.ph.preheader ]
  %.37 = phi i32 [ %50, %.lr.ph ], [ %33, %.lr.ph.preheader ]
  %50 = mul i32 %.37, 10
  %51 = add nsw i32 %.18, -1
  %.not48 = icmp eq i32 %51, 0
  br i1 %.not48, label %.thread2, label %.lr.ph, !llvm.loop !28

.thread2:                                         ; preds = %.lr.ph, %.lr.ph12, %23, %48, %41
  %.140 = phi i32 [ %33, %48 ], [ %33, %41 ], [ 0, %23 ], [ %46, %.lr.ph12 ], [ %50, %.lr.ph ]
  %52 = call i64 @mktime(ptr noundef nonnull %4) #18
  %53 = icmp eq i64 %52, -1
  br i1 %53, label %55, label %54

54:                                               ; preds = %.thread2
  store i64 %52, ptr @ts_sec, align 8
  store i32 %.140, ptr @ts_nsec, align 4
  br label %55

.critedge:                                        ; preds = %14
  call void @llvm.lifetime.end.p0(i64 16, ptr nonnull %8) #18
  br label %55

55:                                               ; preds = %.thread, %54, %16, %.thread2, %32, %28, %23, %.critedge
  %.138 = phi i1 [ false, %.critedge ], [ false, %23 ], [ false, %28 ], [ false, %32 ], [ false, %.thread2 ], [ true, %16 ], [ true, %54 ], [ false, %.thread ]
  call void @llvm.lifetime.end.p0(i64 8, ptr nonnull %7) #18
  call void @llvm.lifetime.end.p0(i64 64, ptr nonnull %6) #18
  call void @llvm.lifetime.end.p0(i64 64, ptr nonnull %5) #18
  call void @llvm.lifetime.end.p0(i64 56, ptr nonnull %4) #18
  ret i1 %.138
}